target datalayout = "e-m:e-p270:32:32-p271:32:32-p272:64:64-i64:64-i128:128-f80:128-n8:16:32:64-S128"
target triple = "x86_64-pc-linux-gnu"

@progname = internal global ptr @.str.13, align 8
@output = internal global ptr @Output, align 8
@stderr = external global ptr, align 8
@.str.23 = private unnamed_addr constant [22 x i8] c"%s: cannot %s %s: %s\0A\00", align 1

; Function Attrs: nounwind uwtable
define internal void @cannot(ptr noundef %0) #0 {
  %2 = alloca ptr, align 8
  store ptr %0, ptr %2, align 8, !tbaa !16
  %3 = load ptr, ptr @stderr, align 8, !tbaa !21
  %4 = load ptr, ptr @progname, align 8, !tbaa !16
  %5 = load ptr, ptr %2, align 8, !tbaa !16
  %6 = load ptr, ptr @output, align 8, !tbaa !16
  %7 = call ptr @__errno_location() #10
  %8 = load i32, ptr %7, align 4, !tbaa !4
  %9 = call ptr @strerror(i32 noundef %8) #7
  %10 = call i32 (ptr, ptr, ...) @fprintf(ptr noundef %3, ptr noundef @.str.23, ptr noundef %4, ptr noundef %5, ptr noundef %6, ptr noundef %9) #7
  call void @exit(i32 noundef 1) #9
  unreachable
}