; Function Attrs: cold noreturn nounwind uwtable
define internal fastcc void @cannot(ptr noundef %0) unnamed_addr #6 {
  %2 = load ptr, ptr @stderr, align 8, !tbaa !18
  %3 = load ptr, ptr @progname, align 8, !tbaa !4
  %4 = load ptr, ptr @output, align 8, !tbaa !4
  %5 = tail call ptr @__errno_location() #15
  %6 = load i32, ptr %5, align 4, !tbaa !10
  %7 = tail call ptr @strerror(i32 noundef %6) #11
  %8 = tail call i32 (ptr, ptr, ...) @fprintf(ptr noundef %2, ptr noundef nonnull @.str.23, ptr noundef %3, ptr noundef %0, ptr noundef %4, ptr noundef %7) #13
  tail call void @exit(i32 noundef 1) #14
  unreachable
}